target datalayout = "e-m:e-p270:32:32-p271:32:32-p272:64:64-i64:64-i128:128-f80:128-n8:16:32:64-S128"
target triple = "x86_64-pc-linux-gnu"

%struct.pointf_s = type { double, double }
%union.inside_t = type { %struct.anon.0 }
%struct.anon.0 = type { ptr, ptr, ptr, double, ptr, i64, i64, double, double, double, double }
%struct.bezier = type { ptr, i64, i32, i32, %struct.pointf_s, %struct.pointf_s }
%struct.anon = type { ptr, ptr }
%struct.arrowtype_t = type { i32, double, ptr, ptr }

@E_penwidth = external global ptr, align 8
@E_arrowsz = external global ptr, align 8

; Function Attrs: nounwind uwtable
define internal double @arrow_length(ptr noundef %0, i32 noundef %1) #0 {
  %3 = alloca double, align 8
  %4 = alloca ptr, align 8
  %5 = alloca i32, align 4
  %6 = alloca double, align 8
  %7 = alloca i32, align 4
  %8 = alloca double, align 8
  %9 = alloca double, align 8
  %10 = alloca i32, align 4
  %11 = alloca i32, align 4
  %12 = alloca i64, align 8
  %13 = alloca ptr, align 8
  %14 = alloca i32, align 4
  store ptr %0, ptr %4, align 8, !tbaa !3
  store i32 %1, ptr %5, align 4, !tbaa !10
  call void @llvm.lifetime.start.p0(i64 8, ptr %6) #9
  store double 0.000000e+00, ptr %6, align 8, !tbaa !53
  call void @llvm.lifetime.start.p0(i64 4, ptr %7) #9
  call void @llvm.lifetime.start.p0(i64 8, ptr %8) #9
  %15 = load ptr, ptr %4, align 8, !tbaa !3
  %16 = load ptr, ptr @E_penwidth, align 8, !tbaa !12
  %17 = call double @late_double(ptr noundef %15, ptr noundef %16, double noundef 1.000000e+00, double noundef 0.000000e+00)
  store double %17, ptr %8, align 8, !tbaa !53
  call void @llvm.lifetime.start.p0(i64 8, ptr %9) #9
  %18 = load ptr, ptr %4, align 8, !tbaa !3
  %19 = load ptr, ptr @E_arrowsz, align 8, !tbaa !12
  %20 = call double @late_double(ptr noundef %18, ptr noundef %19, double noundef 1.000000e+00, double noundef 0.000000e+00)
  store double %20, ptr %9, align 8, !tbaa !53
  %21 = load double, ptr %9, align 8, !tbaa !53
  %22 = fcmp oeq double %21, 0.000000e+00
  br i1 %22, label %23, label %24

23:                                               ; preds = %2
  store double 0.000000e+00, ptr %3, align 8
  store i32 1, ptr %10, align 4
  br label %78

24:                                               ; preds = %2
  store i32 0, ptr %7, align 4, !tbaa !10
  br label %25

25:                                               ; preds = %73, %24
  %26 = load i32, ptr %7, align 4, !tbaa !10
  %27 = icmp slt i32 %26, 4
  br i1 %27, label %28, label %76

28:                                               ; preds = %25
  call void @llvm.lifetime.start.p0(i64 4, ptr %11) #9
  %29 = load i32, ptr %5, align 4, !tbaa !10
  %30 = load i32, ptr %7, align 4, !tbaa !10
  %31 = mul nsw i32 %30, 8
  %32 = lshr i32 %29, %31
  %33 = and i32 %32, 15
  store i32 %33, ptr %11, align 4, !tbaa !10
  call void @llvm.lifetime.start.p0(i64 8, ptr %12) #9
  store i64 0, ptr %12, align 8, !tbaa !50
  br label %34

34:                                               ; preds = %68, %28
  %35 = load i64, ptr %12, align 8, !tbaa !50
  %36 = icmp ult i64 %35, 8
  br i1 %36, label %38, label %37

37:                                               ; preds = %34
  store i32 5, ptr %10, align 4
  br label %71

38:                                               ; preds = %34
  call void @llvm.lifetime.start.p0(i64 8, ptr %13) #9
  %39 = load i64, ptr %12, align 8, !tbaa !50
  %40 = getelementptr inbounds nuw [8 x %struct.arrowtype_t], ptr @Arrowtypes, i64 0, i64 %39
  store ptr %40, ptr %13, align 8, !tbaa !17
  %41 = load i32, ptr %11, align 4, !tbaa !10
  %42 = load ptr, ptr %13, align 8, !tbaa !17
  %43 = getelementptr inbounds nuw %struct.arrowtype_t, ptr %42, i32 0, i32 0
  %44 = load i32, ptr %43, align 8, !tbaa !59
  %45 = icmp eq i32 %41, %44
  br i1 %45, label %46, label %64

46:                                               ; preds = %38
  call void @llvm.lifetime.start.p0(i64 4, ptr %14) #9
  %47 = load i32, ptr %5, align 4, !tbaa !10
  %48 = load i32, ptr %7, align 4, !tbaa !10
  %49 = mul nsw i32 %48, 8
  %50 = lshr i32 %47, %49
  %51 = and i32 %50, 255
  store i32 %51, ptr %14, align 4, !tbaa !10
  %52 = load ptr, ptr %13, align 8, !tbaa !17
  %53 = getelementptr inbounds nuw %struct.arrowtype_t, ptr %52, i32 0, i32 3
  %54 = load ptr, ptr %53, align 8, !tbaa !61
  %55 = load ptr, ptr %13, align 8, !tbaa !17
  %56 = getelementptr inbounds nuw %struct.arrowtype_t, ptr %55, i32 0, i32 1
  %57 = load double, ptr %56, align 8, !tbaa !62
  %58 = load double, ptr %9, align 8, !tbaa !53
  %59 = load double, ptr %8, align 8, !tbaa !53
  %60 = load i32, ptr %14, align 4, !tbaa !10
  %61 = call double %54(double noundef %57, double noundef %58, double noundef %59, i32 noundef %60)
  %62 = load double, ptr %6, align 8, !tbaa !53
  %63 = fadd double %62, %61
  store double %63, ptr %6, align 8, !tbaa !53
  store i32 5, ptr %10, align 4
  call void @llvm.lifetime.end.p0(i64 4, ptr %14) #9
  br label %65

64:                                               ; preds = %38
  store i32 0, ptr %10, align 4
  br label %65

65:                                               ; preds = %64, %46
  call void @llvm.lifetime.end.p0(i64 8, ptr %13) #9
  %66 = load i32, ptr %10, align 4
  switch i32 %66, label %71 [
    i32 0, label %67
  ]

67:                                               ; preds = %65
  br label %68

68:                                               ; preds = %67
  %69 = load i64, ptr %12, align 8, !tbaa !50
  %70 = add i64 %69, 1
  store i64 %70, ptr %12, align 8, !tbaa !50
  br label %34, !llvm.loop !63

71:                                               ; preds = %65, %37
  call void @llvm.lifetime.end.p0(i64 8, ptr %12) #9
  br label %72

72:                                               ; preds = %71
  call void @llvm.lifetime.end.p0(i64 4, ptr %11) #9
  br label %73

73:                                               ; preds = %72
  %74 = load i32, ptr %7, align 4, !tbaa !10
  %75 = add nsw i32 %74, 1
  store i32 %75, ptr %7, align 4, !tbaa !10
  br label %25, !llvm.loop !64

76:                                               ; preds = %25
  %77 = load double, ptr %6, align 8, !tbaa !53
  store double %77, ptr %3, align 8
  store i32 1, ptr %10, align 4
  br label %78

78:                                               ; preds = %76, %23
  call void @llvm.lifetime.end.p0(i64 8, ptr %9) #9
  call void @llvm.lifetime.end.p0(i64 8, ptr %8) #9
  call void @llvm.lifetime.end.p0(i64 4, ptr %7) #9
  call void @llvm.lifetime.end.p0(i64 8, ptr %6) #9
  %79 = load double, ptr %3, align 8
  ret double %79
}

; Function Attrs: nounwind uwtable
define i64 @arrowEndClip(ptr noundef %0, ptr noundef %1, i64 noundef %2, i64 noundef %3, ptr noundef %4, i32 noundef %5) #0 {
  %7 = alloca ptr, align 8
  %8 = alloca ptr, align 8
  %9 = alloca i64, align 8
  %10 = alloca i64, align 8
  %11 = alloca ptr, align 8
  %12 = alloca i32, align 4
  %13 = alloca %union.inside_t, align 8
  %14 = alloca [4 x %struct.pointf_s], align 16
  %15 = alloca double, align 8
  %16 = alloca double, align 8
  store ptr %0, ptr %7, align 8, !tbaa !3
  store ptr %1, ptr %8, align 8, !tbaa !49
  store i64 %2, ptr %9, align 8, !tbaa !50
  store i64 %3, ptr %10, align 8, !tbaa !50
  store ptr %4, ptr %11, align 8, !tbaa !51
  store i32 %5, ptr %12, align 4, !tbaa !10
  call void @llvm.lifetime.start.p0(i64 88, ptr %13) #9
  call void @llvm.lifetime.start.p0(i64 64, ptr %14) #9
  call void @llvm.lifetime.start.p0(i64 8, ptr %15) #9
  call void @llvm.lifetime.start.p0(i64 8, ptr %16) #9
  %17 = load ptr, ptr %7, align 8, !tbaa !3
  %18 = load i32, ptr %12, align 4, !tbaa !10
  %19 = call double @arrow_length(ptr noundef %17, i32 noundef %18)
  store double %19, ptr %15, align 8, !tbaa !53
  %20 = load double, ptr %15, align 8, !tbaa !53
  %21 = load double, ptr %15, align 8, !tbaa !53
  %22 = fmul double %20, %21
  store double %22, ptr %16, align 8, !tbaa !53
  %23 = load i32, ptr %12, align 4, !tbaa !10
  %24 = load ptr, ptr %11, align 8, !tbaa !51
  %25 = getelementptr inbounds nuw %struct.bezier, ptr %24, i32 0, i32 3
  store i32 %23, ptr %25, align 4, !tbaa !54
  %26 = load ptr, ptr %11, align 8, !tbaa !51
  %27 = getelementptr inbounds nuw %struct.bezier, ptr %26, i32 0, i32 5
  %28 = load ptr, ptr %8, align 8, !tbaa !49
  %29 = load i64, ptr %10, align 8, !tbaa !50
  %30 = add i64 %29, 3
  %31 = getelementptr inbounds nuw %struct.pointf_s, ptr %28, i64 %30
  call void @llvm.memcpy.p0.p0.i64(ptr align 8 %27, ptr align 8 %31, i64 16, i1 false), !tbaa.struct !56
  %32 = load i64, ptr %10, align 8, !tbaa !50
  %33 = load i64, ptr %9, align 8, !tbaa !50
  %34 = icmp ugt i64 %32, %33
  br i1 %34, label %35, label %91

35:                                               ; preds = %6
  %36 = load ptr, ptr %8, align 8, !tbaa !49
  %37 = load i64, ptr %10, align 8, !tbaa !50
  %38 = getelementptr inbounds nuw %struct.pointf_s, ptr %36, i64 %37
  %39 = getelementptr inbounds nuw %struct.pointf_s, ptr %38, i32 0, i32 0
  %40 = load double, ptr %39, align 8, !tbaa !57
  %41 = load ptr, ptr %8, align 8, !tbaa !49
  %42 = load i64, ptr %10, align 8, !tbaa !50
  %43 = add i64 %42, 3
  %44 = getelementptr inbounds nuw %struct.pointf_s, ptr %41, i64 %43
  %45 = getelementptr inbounds nuw %struct.pointf_s, ptr %44, i32 0, i32 0
  %46 = load double, ptr %45, align 8, !tbaa !57
  %47 = fsub double %40, %46
  %48 = load ptr, ptr %8, align 8, !tbaa !49
  %49 = load i64, ptr %10, align 8, !tbaa !50
  %50 = getelementptr inbounds nuw %struct.pointf_s, ptr %48, i64 %49
  %51 = getelementptr inbounds nuw %struct.pointf_s, ptr %50, i32 0, i32 0
  %52 = load double, ptr %51, align 8, !tbaa !57
  %53 = load ptr, ptr %8, align 8, !tbaa !49
  %54 = load i64, ptr %10, align 8, !tbaa !50
  %55 = add i64 %54, 3
  %56 = getelementptr inbounds nuw %struct.pointf_s, ptr %53, i64 %55
  %57 = getelementptr inbounds nuw %struct.pointf_s, ptr %56, i32 0, i32 0
  %58 = load double, ptr %57, align 8, !tbaa !57
  %59 = fsub double %52, %58
  %60 = load ptr, ptr %8, align 8, !tbaa !49
  %61 = load i64, ptr %10, align 8, !tbaa !50
  %62 = getelementptr inbounds nuw %struct.pointf_s, ptr %60, i64 %61
  %63 = getelementptr inbounds nuw %struct.pointf_s, ptr %62, i32 0, i32 1
  %64 = load double, ptr %63, align 8, !tbaa !58
  %65 = load ptr, ptr %8, align 8, !tbaa !49
  %66 = load i64, ptr %10, align 8, !tbaa !50
  %67 = add i64 %66, 3
  %68 = getelementptr inbounds nuw %struct.pointf_s, ptr %65, i64 %67
  %69 = getelementptr inbounds nuw %struct.pointf_s, ptr %68, i32 0, i32 1
  %70 = load double, ptr %69, align 8, !tbaa !58
  %71 = fsub double %64, %70
  %72 = load ptr, ptr %8, align 8, !tbaa !49
  %73 = load i64, ptr %10, align 8, !tbaa !50
  %74 = getelementptr inbounds nuw %struct.pointf_s, ptr %72, i64 %73
  %75 = getelementptr inbounds nuw %struct.pointf_s, ptr %74, i32 0, i32 1
  %76 = load double, ptr %75, align 8, !tbaa !58
  %77 = load ptr, ptr %8, align 8, !tbaa !49
  %78 = load i64, ptr %10, align 8, !tbaa !50
  %79 = add i64 %78, 3
  %80 = getelementptr inbounds nuw %struct.pointf_s, ptr %77, i64 %79
  %81 = getelementptr inbounds nuw %struct.pointf_s, ptr %80, i32 0, i32 1
  %82 = load double, ptr %81, align 8, !tbaa !58
  %83 = fsub double %76, %82
  %84 = fmul double %71, %83
  %85 = call double @llvm.fmuladd.f64(double %47, double %59, double %84)
  %86 = load double, ptr %16, align 8, !tbaa !53
  %87 = fcmp olt double %85, %86
  br i1 %87, label %88, label %91

88:                                               ; preds = %35
  %89 = load i64, ptr %10, align 8, !tbaa !50
  %90 = sub i64 %89, 3
  store i64 %90, ptr %10, align 8, !tbaa !50
  br label %91

91:                                               ; preds = %88, %35, %6
  %92 = getelementptr inbounds [4 x %struct.pointf_s], ptr %14, i64 0, i64 3
  %93 = load ptr, ptr %8, align 8, !tbaa !49
  %94 = load i64, ptr %10, align 8, !tbaa !50
  %95 = getelementptr inbounds nuw %struct.pointf_s, ptr %93, i64 %94
  call void @llvm.memcpy.p0.p0.i64(ptr align 16 %92, ptr align 8 %95, i64 16, i1 false), !tbaa.struct !56
  %96 = getelementptr inbounds [4 x %struct.pointf_s], ptr %14, i64 0, i64 2
  %97 = load ptr, ptr %8, align 8, !tbaa !49
  %98 = load i64, ptr %10, align 8, !tbaa !50
  %99 = add i64 %98, 1
  %100 = getelementptr inbounds nuw %struct.pointf_s, ptr %97, i64 %99
  call void @llvm.memcpy.p0.p0.i64(ptr align 16 %96, ptr align 8 %100, i64 16, i1 false), !tbaa.struct !56
  %101 = getelementptr inbounds [4 x %struct.pointf_s], ptr %14, i64 0, i64 1
  %102 = load ptr, ptr %8, align 8, !tbaa !49
  %103 = load i64, ptr %10, align 8, !tbaa !50
  %104 = add i64 %103, 2
  %105 = getelementptr inbounds nuw %struct.pointf_s, ptr %102, i64 %104
  call void @llvm.memcpy.p0.p0.i64(ptr align 16 %101, ptr align 8 %105, i64 16, i1 false), !tbaa.struct !56
  %106 = getelementptr inbounds [4 x %struct.pointf_s], ptr %14, i64 0, i64 0
  %107 = load ptr, ptr %11, align 8, !tbaa !51
  %108 = getelementptr inbounds nuw %struct.bezier, ptr %107, i32 0, i32 5
  call void @llvm.memcpy.p0.p0.i64(ptr align 16 %106, ptr align 8 %108, i64 16, i1 false), !tbaa.struct !56
  %109 = load double, ptr %15, align 8, !tbaa !53
  %110 = fcmp ogt double %109, 0.000000e+00
  br i1 %110, label %111, label %116

111:                                              ; preds = %91
  %112 = getelementptr inbounds [4 x %struct.pointf_s], ptr %14, i64 0, i64 0
  %113 = getelementptr inbounds nuw %struct.anon, ptr %13, i32 0, i32 0
  store ptr %112, ptr %113, align 8, !tbaa !16
  %114 = getelementptr inbounds nuw %struct.anon, ptr %13, i32 0, i32 1
  store ptr %16, ptr %114, align 8, !tbaa !16
  %115 = getelementptr inbounds [4 x %struct.pointf_s], ptr %14, i64 0, i64 0
  call void @bezier_clip(ptr noundef %13, ptr noundef @inside, ptr noundef %115, i1 noundef zeroext true)
  br label %116

116:                                              ; preds = %111, %91
  %117 = load ptr, ptr %8, align 8, !tbaa !49
  %118 = load i64, ptr %10, align 8, !tbaa !50
  %119 = getelementptr inbounds nuw %struct.pointf_s, ptr %117, i64 %118
  %120 = getelementptr inbounds [4 x %struct.pointf_s], ptr %14, i64 0, i64 3
  call void @llvm.memcpy.p0.p0.i64(ptr align 8 %119, ptr align 16 %120, i64 16, i1 false), !tbaa.struct !56
  %121 = load ptr, ptr %8, align 8, !tbaa !49
  %122 = load i64, ptr %10, align 8, !tbaa !50
  %123 = add i64 %122, 1
  %124 = getelementptr inbounds nuw %struct.pointf_s, ptr %121, i64 %123
  %125 = getelementptr inbounds [4 x %struct.pointf_s], ptr %14, i64 0, i64 2
  call void @llvm.memcpy.p0.p0.i64(ptr align 8 %124, ptr align 16 %125, i64 16, i1 false), !tbaa.struct !56
  %126 = load ptr, ptr %8, align 8, !tbaa !49
  %127 = load i64, ptr %10, align 8, !tbaa !50
  %128 = add i64 %127, 2
  %129 = getelementptr inbounds nuw %struct.pointf_s, ptr %126, i64 %128
  %130 = getelementptr inbounds [4 x %struct.pointf_s], ptr %14, i64 0, i64 1
  call void @llvm.memcpy.p0.p0.i64(ptr align 8 %129, ptr align 16 %130, i64 16, i1 false), !tbaa.struct !56
  %131 = load ptr, ptr %8, align 8, !tbaa !49
  %132 = load i64, ptr %10, align 8, !tbaa !50
  %133 = add i64 %132, 3
  %134 = getelementptr inbounds nuw %struct.pointf_s, ptr %131, i64 %133
  %135 = getelementptr inbounds [4 x %struct.pointf_s], ptr %14, i64 0, i64 0
  call void @llvm.memcpy.p0.p0.i64(ptr align 8 %134, ptr align 16 %135, i64 16, i1 false), !tbaa.struct !56
  %136 = load i64, ptr %10, align 8, !tbaa !50
  call void @llvm.lifetime.end.p0(i64 8, ptr %16) #9
  call void @llvm.lifetime.end.p0(i64 8, ptr %15) #9
  call void @llvm.lifetime.end.p0(i64 64, ptr %14) #9
  call void @llvm.lifetime.end.p0(i64 88, ptr %13) #9
  ret i64 %136
}