; Function Attrs: nounwind uwtable
define noundef i64 @arrowEndClip(ptr noundef %0, ptr noundef captures(none) %1, i64 noundef %2, i64 noundef %3, ptr noundef writeonly captures(none) %4, i32 noundef %5) local_unnamed_addr #0 {
  %7 = alloca %union.inside_t, align 8
  %8 = alloca [4 x %struct.pointf_s], align 16
  %9 = alloca double, align 8
  call void @llvm.lifetime.start.p0(i64 88, ptr nonnull %7) #12
  call void @llvm.lifetime.start.p0(i64 64, ptr nonnull %8) #12
  call void @llvm.lifetime.start.p0(i64 8, ptr nonnull %9) #12
  %10 = load ptr, ptr @E_penwidth, align 8, !tbaa !7
  %11 = tail call double @late_double(ptr noundef %0, ptr noundef %10, double noundef 1.000000e+00, double noundef 0.000000e+00) #12
  %12 = load ptr, ptr @E_arrowsz, align 8, !tbaa !7
  %13 = tail call double @late_double(ptr noundef %0, ptr noundef %12, double noundef 1.000000e+00, double noundef 0.000000e+00) #12
  %14 = fcmp oeq double %13, 0.000000e+00
  br i1 %14, label %arrow_length.exit, label %.preheader.i

.preheader.i:                                     ; preds = %6, %.loopexit.i
  %.02231.i = phi double [ %.2.i, %.loopexit.i ], [ 0.000000e+00, %6 ]
  %.02430.i = phi i32 [ %30, %.loopexit.i ], [ 0, %6 ]
  %15 = shl nuw nsw i32 %.02430.i, 3
  %16 = lshr i32 %5, %15
  %17 = and i32 %16, 15
  br label %20

18:                                               ; preds = %20
  %19 = add nuw nsw i64 %.02329.i, 1
  %exitcond.not.i = icmp eq i64 %19, 8
  br i1 %exitcond.not.i, label %.loopexit.i, label %20, !llvm.loop !49

20:                                               ; preds = %18, %.preheader.i
  %.02329.i = phi i64 [ 0, %.preheader.i ], [ %19, %18 ]
  %21 = getelementptr inbounds nuw [8 x %struct.arrowtype_t], ptr @Arrowtypes, i64 0, i64 %.02329.i
  %22 = load i32, ptr %21, align 16, !tbaa !50
  %.not.i = icmp eq i32 %17, %22
  br i1 %.not.i, label %.thread.i, label %18

.thread.i:                                        ; preds = %20
  %23 = and i32 %16, 255
  %24 = getelementptr inbounds nuw i8, ptr %21, i64 24
  %25 = load ptr, ptr %24, align 8, !tbaa !52
  %26 = getelementptr inbounds nuw i8, ptr %21, i64 8
  %27 = load double, ptr %26, align 8, !tbaa !53
  %28 = tail call double %25(double noundef %27, double noundef %13, double noundef %11, i32 noundef %23) #12
  %29 = fadd double %.02231.i, %28
  br label %.loopexit.i

.loopexit.i:                                      ; preds = %18, %.thread.i
  %.2.i = phi double [ %29, %.thread.i ], [ %.02231.i, %18 ]
  %30 = add nuw nsw i32 %.02430.i, 1
  %exitcond33.not.i = icmp eq i32 %30, 4
  br i1 %exitcond33.not.i, label %arrow_length.exit, label %.preheader.i, !llvm.loop !54

arrow_length.exit:                                ; preds = %.loopexit.i, %6
  %.0.i = phi double [ 0.000000e+00, %6 ], [ %.2.i, %.loopexit.i ]
  %31 = fmul double %.0.i, %.0.i
  store double %31, ptr %9, align 8, !tbaa !55
  %32 = getelementptr inbounds nuw i8, ptr %4, i64 20
  store i32 %5, ptr %32, align 4, !tbaa !56
  %33 = getelementptr inbounds nuw i8, ptr %4, i64 40
  %34 = getelementptr %struct.pointf_s, ptr %1, i64 %3
  %35 = getelementptr i8, ptr %34, i64 48
  tail call void @llvm.memcpy.p0.p0.i64(ptr noundef nonnull align 8 dereferenceable(16) %33, ptr noundef nonnull align 8 dereferenceable(16) %35, i64 16, i1 false), !tbaa.struct !58
  %36 = icmp ugt i64 %3, %2
  br i1 %36, label %37, label %51

37:                                               ; preds = %arrow_length.exit
  %38 = load double, ptr %34, align 8, !tbaa !59
  %39 = load double, ptr %35, align 8, !tbaa !59
  %40 = fsub double %38, %39
  %41 = getelementptr inbounds nuw i8, ptr %34, i64 8
  %42 = load double, ptr %41, align 8, !tbaa !60
  %43 = getelementptr i8, ptr %34, i64 56
  %44 = load double, ptr %43, align 8, !tbaa !60
  %45 = fsub double %42, %44
  %46 = fmul double %45, %45
  %47 = tail call double @llvm.fmuladd.f64(double %40, double %40, double %46)
  %48 = fcmp olt double %47, %31
  br i1 %48, label %49, label %51

49:                                               ; preds = %37
  %50 = add i64 %3, -3
  br label %51

51:                                               ; preds = %49, %37, %arrow_length.exit
  %.0 = phi i64 [ %50, %49 ], [ %3, %37 ], [ %3, %arrow_length.exit ]
  %52 = getelementptr inbounds nuw i8, ptr %8, i64 48
  %53 = getelementptr inbounds nuw %struct.pointf_s, ptr %1, i64 %.0
  call void @llvm.memcpy.p0.p0.i64(ptr noundef nonnull align 16 dereferenceable(16) %52, ptr noundef nonnull align 8 dereferenceable(16) %53, i64 16, i1 false), !tbaa.struct !58
  %54 = getelementptr inbounds nuw i8, ptr %8, i64 32
  %55 = getelementptr i8, ptr %53, i64 16
  call void @llvm.memcpy.p0.p0.i64(ptr noundef nonnull align 16 dereferenceable(16) %54, ptr noundef nonnull align 8 dereferenceable(16) %55, i64 16, i1 false), !tbaa.struct !58
  %56 = getelementptr inbounds nuw i8, ptr %8, i64 16
  %57 = getelementptr i8, ptr %53, i64 32
  call void @llvm.memcpy.p0.p0.i64(ptr noundef nonnull align 16 dereferenceable(16) %56, ptr noundef nonnull align 8 dereferenceable(16) %57, i64 16, i1 false), !tbaa.struct !58
  call void @llvm.memcpy.p0.p0.i64(ptr noundef nonnull align 16 dereferenceable(16) %8, ptr noundef nonnull align 8 dereferenceable(16) %35, i64 16, i1 false)
  %58 = fcmp ogt double %.0.i, 0.000000e+00
  br i1 %58, label %59, label %61

59:                                               ; preds = %51
  store ptr %8, ptr %7, align 8, !tbaa !10
  %60 = getelementptr inbounds nuw i8, ptr %7, i64 8
  store ptr %9, ptr %60, align 8, !tbaa !10
  call void @bezier_clip(ptr noundef nonnull %7, ptr noundef nonnull @inside, ptr noundef nonnull %8, i1 noundef zeroext true) #12
  br label %61

61:                                               ; preds = %59, %51
  call void @llvm.memcpy.p0.p0.i64(ptr noundef nonnull align 8 dereferenceable(16) %53, ptr noundef nonnull align 16 dereferenceable(16) %52, i64 16, i1 false), !tbaa.struct !58
  call void @llvm.memcpy.p0.p0.i64(ptr noundef nonnull align 8 dereferenceable(16) %55, ptr noundef nonnull align 16 dereferenceable(16) %54, i64 16, i1 false), !tbaa.struct !58
  call void @llvm.memcpy.p0.p0.i64(ptr noundef nonnull align 8 dereferenceable(16) %57, ptr noundef nonnull align 16 dereferenceable(16) %56, i64 16, i1 false), !tbaa.struct !58
  %62 = getelementptr i8, ptr %53, i64 48
  call void @llvm.memcpy.p0.p0.i64(ptr noundef nonnull align 8 dereferenceable(16) %62, ptr noundef nonnull align 16 dereferenceable(16) %8, i64 16, i1 false), !tbaa.struct !58
  call void @llvm.lifetime.end.p0(i64 8, ptr nonnull %9) #12
  call void @llvm.lifetime.end.p0(i64 64, ptr nonnull %8) #12
  call void @llvm.lifetime.end.p0(i64 88, ptr nonnull %7) #12
  ret i64 %.0
}